target datalayout = "e-m:e-p270:32:32-p271:32:32-p272:64:64-i64:64-i128:128-f80:128-n8:16:32:64-S128"
target triple = "x86_64-unknown-linux-gnu"

%"class.std::__shared_count" = type { ptr }
%"class.arrow::ArrayBuilder" = type { ptr, ptr, i64, %"class.arrow::TypedBufferBuilder", i64, i64, i64, %"class.std::vector.14" }
%"class.arrow::TypedBufferBuilder" = type { %"class.arrow::BufferBuilder", i64, i64 }
%"class.arrow::BufferBuilder" = type { %"class.std::shared_ptr.11", ptr, ptr, i64, i64, i64 }
%"class.std::shared_ptr.11" = type { %"class.std::__shared_ptr.12" }
%"class.std::__shared_ptr.12" = type { ptr, %"class.std::__shared_count" }
%"class.std::vector.14" = type { %"struct.std::_Vector_base.15" }
%"struct.std::_Vector_base.15" = type { %"struct.std::_Vector_base<std::shared_ptr<arrow::ArrayBuilder>, std::allocator<std::shared_ptr<arrow::ArrayBuilder>>>::_Vector_impl" }
%"struct.std::_Vector_base<std::shared_ptr<arrow::ArrayBuilder>, std::allocator<std::shared_ptr<arrow::ArrayBuilder>>>::_Vector_impl" = type { %"struct.std::_Vector_base<std::shared_ptr<arrow::ArrayBuilder>, std::allocator<std::shared_ptr<arrow::ArrayBuilder>>>::_Vector_impl_data" }
%"struct.std::_Vector_base<std::shared_ptr<arrow::ArrayBuilder>, std::allocator<std::shared_ptr<arrow::ArrayBuilder>>>::_Vector_impl_data" = type { ptr, ptr, ptr }
%"struct.std::_Bit_const_iterator" = type { %"struct.std::_Bit_iterator_base.base", [4 x i8] }
%"struct.std::_Bit_iterator_base.base" = type <{ ptr, i32 }>
%"struct.std::_Bvector_base" = type { %"struct.std::_Bvector_base<std::allocator<bool>>::_Bvector_impl" }
%"struct.std::_Bvector_base<std::allocator<bool>>::_Bvector_impl" = type { %"struct.std::_Bvector_base<std::allocator<bool>>::_Bvector_impl_data" }
%"struct.std::_Bvector_base<std::allocator<bool>>::_Bvector_impl_data" = type { %"struct.std::_Bit_iterator", %"struct.std::_Bit_iterator", ptr }
%"struct.std::_Bit_iterator" = type { %"struct.std::_Bit_iterator_base.base", [4 x i8] }
%"struct.std::_Bit_iterator_base" = type <{ ptr, i32, [4 x i8] }>
%"struct.std::_Bit_reference" = type { ptr, i64 }

@_ZN5arrow8bit_utilL8kBitmaskE = internal constant [8 x i8] c"\01\02\04\08\10 @\80", align 1

; Function Attrs: mustprogress nounwind uwtable
define linkonce_odr noundef ptr @_ZN5arrow13BufferBuilder12mutable_dataEv(ptr noundef nonnull align 8 dereferenceable(56) %this) #1 comdat align 2 {
entry:
  %this.addr = alloca ptr, align 8
  store ptr %this, ptr %this.addr, align 8
  %this1 = load ptr, ptr %this.addr, align 8
  %data_ = getelementptr inbounds %"class.arrow::BufferBuilder", ptr %this1, i32 0, i32 2
  %0 = load ptr, ptr %data_, align 8
  ret ptr %0
}

; Function Attrs: mustprogress nounwind uwtable
define internal void @_ZN5arrow8bit_utilL8SetBitToEPhlb(ptr noundef %bits, i64 noundef %i, i1 noundef zeroext %bit_is_set) #1 {
entry:
  %bits.addr = alloca ptr, align 8
  %i.addr = alloca i64, align 8
  %bit_is_set.addr = alloca i8, align 1
  store ptr %bits, ptr %bits.addr, align 8
  store i64 %i, ptr %i.addr, align 8
  %frombool = zext i1 %bit_is_set to i8
  store i8 %frombool, ptr %bit_is_set.addr, align 1
  %0 = load i8, ptr %bit_is_set.addr, align 1
  %tobool = trunc i8 %0 to i1
  %conv = zext i1 %tobool to i8
  %conv1 = zext i8 %conv to i32
  %sub = sub nsw i32 0, %conv1
  %1 = load ptr, ptr %bits.addr, align 8
  %2 = load i64, ptr %i.addr, align 8
  %div = sdiv i64 %2, 8
  %arrayidx = getelementptr inbounds i8, ptr %1, i64 %div
  %3 = load i8, ptr %arrayidx, align 1
  %conv2 = zext i8 %3 to i32
  %xor = xor i32 %sub, %conv2
  %conv3 = trunc i32 %xor to i8
  %conv4 = zext i8 %conv3 to i32
  %4 = load i64, ptr %i.addr, align 8
  %rem = srem i64 %4, 8
  %arrayidx5 = getelementptr inbounds [8 x i8], ptr @_ZN5arrow8bit_utilL8kBitmaskE, i64 0, i64 %rem
  %5 = load i8, ptr %arrayidx5, align 1
  %conv6 = zext i8 %5 to i32
  %and = and i32 %conv4, %conv6
  %6 = load ptr, ptr %bits.addr, align 8
  %7 = load i64, ptr %i.addr, align 8
  %div7 = sdiv i64 %7, 8
  %arrayidx8 = getelementptr inbounds i8, ptr %6, i64 %div7
  %8 = load i8, ptr %arrayidx8, align 1
  %conv9 = zext i8 %8 to i32
  %xor10 = xor i32 %conv9, %and
  %conv11 = trunc i32 %xor10 to i8
  store i8 %conv11, ptr %arrayidx8, align 1
  ret void
}

; Function Attrs: mustprogress uwtable
define linkonce_odr noundef ptr @_ZN5arrow18TypedBufferBuilderIbvE12mutable_dataEv(ptr noundef nonnull align 8 dereferenceable(72) %this) #0 comdat align 2 {
entry:
  %this.addr = alloca ptr, align 8
  store ptr %this, ptr %this.addr, align 8
  %this1 = load ptr, ptr %this.addr, align 8
  %bytes_builder_ = getelementptr inbounds %"class.arrow::TypedBufferBuilder", ptr %this1, i32 0, i32 0
  %call = call noundef ptr @_ZN5arrow13BufferBuilder12mutable_dataEv(ptr noundef nonnull align 8 dereferenceable(56) %bytes_builder_)
  ret ptr %call
}

; Function Attrs: mustprogress nounwind uwtable
define linkonce_odr void @_ZNSt18_Bit_iterator_baseC2EPmj(ptr noundef nonnull align 8 dereferenceable(12) %this, ptr noundef %__x, i32 noundef %__y) unnamed_addr #1 comdat align 2 {
entry:
  %this.addr = alloca ptr, align 8
  %__x.addr = alloca ptr, align 8
  %__y.addr = alloca i32, align 4
  store ptr %this, ptr %this.addr, align 8
  store ptr %__x, ptr %__x.addr, align 8
  store i32 %__y, ptr %__y.addr, align 4
  %this1 = load ptr, ptr %this.addr, align 8
  %_M_p = getelementptr inbounds %"struct.std::_Bit_iterator_base", ptr %this1, i32 0, i32 0
  %0 = load ptr, ptr %__x.addr, align 8
  store ptr %0, ptr %_M_p, align 8
  %_M_offset = getelementptr inbounds %"struct.std::_Bit_iterator_base", ptr %this1, i32 0, i32 1
  %1 = load i32, ptr %__y.addr, align 4
  store i32 %1, ptr %_M_offset, align 8
  ret void
}

; Function Attrs: mustprogress nounwind uwtable
define linkonce_odr void @_ZNSt18_Bit_iterator_base10_M_bump_upEv(ptr noundef nonnull align 8 dereferenceable(12) %this) #1 comdat align 2 {
entry:
  %this.addr = alloca ptr, align 8
  store ptr %this, ptr %this.addr, align 8
  %this1 = load ptr, ptr %this.addr, align 8
  %_M_offset = getelementptr inbounds %"struct.std::_Bit_iterator_base", ptr %this1, i32 0, i32 1
  %0 = load i32, ptr %_M_offset, align 8
  %inc = add i32 %0, 1
  store i32 %inc, ptr %_M_offset, align 8
  %cmp = icmp eq i32 %0, 63
  br i1 %cmp, label %if.then, label %if.end

if.then:                                          ; preds = %entry
  %_M_offset2 = getelementptr inbounds %"struct.std::_Bit_iterator_base", ptr %this1, i32 0, i32 1
  store i32 0, ptr %_M_offset2, align 8
  %_M_p = getelementptr inbounds %"struct.std::_Bit_iterator_base", ptr %this1, i32 0, i32 0
  %1 = load ptr, ptr %_M_p, align 8
  %incdec.ptr = getelementptr inbounds i64, ptr %1, i32 1
  store ptr %incdec.ptr, ptr %_M_p, align 8
  br label %if.end

if.end:                                           ; preds = %if.then, %entry
  ret void
}

; Function Attrs: mustprogress uwtable
define linkonce_odr void @_ZN5arrow18TypedBufferBuilderIbvE12UnsafeAppendEb(ptr noundef nonnull align 8 dereferenceable(72) %this, i1 noundef zeroext %value) #0 comdat align 2 {
entry:
  %this.addr = alloca ptr, align 8
  %value.addr = alloca i8, align 1
  store ptr %this, ptr %this.addr, align 8
  %frombool = zext i1 %value to i8
  store i8 %frombool, ptr %value.addr, align 1
  %this1 = load ptr, ptr %this.addr, align 8
  %call = call noundef ptr @_ZN5arrow18TypedBufferBuilderIbvE12mutable_dataEv(ptr noundef nonnull align 8 dereferenceable(72) %this1)
  %bit_length_ = getelementptr inbounds %"class.arrow::TypedBufferBuilder", ptr %this1, i32 0, i32 1
  %0 = load i64, ptr %bit_length_, align 8
  %1 = load i8, ptr %value.addr, align 1
  %tobool = trunc i8 %1 to i1
  call void @_ZN5arrow8bit_utilL8SetBitToEPhlb(ptr noundef %call, i64 noundef %0, i1 noundef zeroext %tobool)
  %2 = load i8, ptr %value.addr, align 1
  %tobool2 = trunc i8 %2 to i1
  br i1 %tobool2, label %if.end, label %if.then

if.then:                                          ; preds = %entry
  %false_count_ = getelementptr inbounds %"class.arrow::TypedBufferBuilder", ptr %this1, i32 0, i32 2
  %3 = load i64, ptr %false_count_, align 8
  %inc = add nsw i64 %3, 1
  store i64 %inc, ptr %false_count_, align 8
  br label %if.end

if.end:                                           ; preds = %if.then, %entry
  %bit_length_3 = getelementptr inbounds %"class.arrow::TypedBufferBuilder", ptr %this1, i32 0, i32 1
  %4 = load i64, ptr %bit_length_3, align 8
  %inc4 = add nsw i64 %4, 1
  store i64 %inc4, ptr %bit_length_3, align 8
  ret void
}

; Function Attrs: mustprogress nounwind uwtable
define linkonce_odr noundef zeroext i1 @_ZNKSt14_Bit_referencecvbEv(ptr noundef nonnull align 8 dereferenceable(16) %this) #1 comdat align 2 {
entry:
  %this.addr = alloca ptr, align 8
  store ptr %this, ptr %this.addr, align 8
  %this1 = load ptr, ptr %this.addr, align 8
  %_M_p = getelementptr inbounds %"struct.std::_Bit_reference", ptr %this1, i32 0, i32 0
  %0 = load ptr, ptr %_M_p, align 8
  %1 = load i64, ptr %0, align 8
  %_M_mask = getelementptr inbounds %"struct.std::_Bit_reference", ptr %this1, i32 0, i32 1
  %2 = load i64, ptr %_M_mask, align 8
  %and = and i64 %1, %2
  %tobool = icmp ne i64 %and, 0
  %lnot = xor i1 %tobool, true
  %lnot2 = xor i1 %lnot, true
  ret i1 %lnot2
}

; Function Attrs: mustprogress nounwind uwtable
define linkonce_odr void @_ZNSt14_Bit_referenceC2EPmm(ptr noundef nonnull align 8 dereferenceable(16) %this, ptr noundef %__x, i64 noundef %__y) unnamed_addr #1 comdat align 2 {
entry:
  %this.addr = alloca ptr, align 8
  %__x.addr = alloca ptr, align 8
  %__y.addr = alloca i64, align 8
  store ptr %this, ptr %this.addr, align 8
  store ptr %__x, ptr %__x.addr, align 8
  store i64 %__y, ptr %__y.addr, align 8
  %this1 = load ptr, ptr %this.addr, align 8
  %_M_p = getelementptr inbounds %"struct.std::_Bit_reference", ptr %this1, i32 0, i32 0
  %0 = load ptr, ptr %__x.addr, align 8
  store ptr %0, ptr %_M_p, align 8
  %_M_mask = getelementptr inbounds %"struct.std::_Bit_reference", ptr %this1, i32 0, i32 1
  %1 = load i64, ptr %__y.addr, align 8
  store i64 %1, ptr %_M_mask, align 8
  ret void
}

; Function Attrs: mustprogress nounwind uwtable
define linkonce_odr noundef zeroext i1 @_ZSteqRKSt18_Bit_iterator_baseS1_(ptr noundef nonnull align 8 dereferenceable(12) %__x, ptr noundef nonnull align 8 dereferenceable(12) %__y) #1 comdat {
entry:
  %__x.addr = alloca ptr, align 8
  %__y.addr = alloca ptr, align 8
  store ptr %__x, ptr %__x.addr, align 8
  store ptr %__y, ptr %__y.addr, align 8
  %0 = load ptr, ptr %__x.addr, align 8
  %_M_p = getelementptr inbounds %"struct.std::_Bit_iterator_base", ptr %0, i32 0, i32 0
  %1 = load ptr, ptr %_M_p, align 8
  %2 = load ptr, ptr %__y.addr, align 8
  %_M_p1 = getelementptr inbounds %"struct.std::_Bit_iterator_base", ptr %2, i32 0, i32 0
  %3 = load ptr, ptr %_M_p1, align 8
  %cmp = icmp eq ptr %1, %3
  br i1 %cmp, label %land.rhs, label %land.end

land.rhs:                                         ; preds = %entry
  %4 = load ptr, ptr %__x.addr, align 8
  %_M_offset = getelementptr inbounds %"struct.std::_Bit_iterator_base", ptr %4, i32 0, i32 1
  %5 = load i32, ptr %_M_offset, align 8
  %6 = load ptr, ptr %__y.addr, align 8
  %_M_offset2 = getelementptr inbounds %"struct.std::_Bit_iterator_base", ptr %6, i32 0, i32 1
  %7 = load i32, ptr %_M_offset2, align 8
  %cmp3 = icmp eq i32 %5, %7
  br label %land.end

land.end:                                         ; preds = %land.rhs, %entry
  %8 = phi i1 [ false, %entry ], [ %cmp3, %land.rhs ]
  ret i1 %8
}

; Function Attrs: mustprogress nounwind uwtable
define linkonce_odr void @_ZNSt19_Bit_const_iteratorC2ERKSt13_Bit_iterator(ptr noundef nonnull align 8 dereferenceable(12) %this, ptr noundef nonnull align 8 dereferenceable(12) %__x) unnamed_addr #1 comdat align 2 {
entry:
  %this.addr = alloca ptr, align 8
  %__x.addr = alloca ptr, align 8
  store ptr %this, ptr %this.addr, align 8
  store ptr %__x, ptr %__x.addr, align 8
  %this1 = load ptr, ptr %this.addr, align 8
  %0 = load ptr, ptr %__x.addr, align 8
  %_M_p = getelementptr inbounds %"struct.std::_Bit_iterator_base", ptr %0, i32 0, i32 0
  %1 = load ptr, ptr %_M_p, align 8
  %2 = load ptr, ptr %__x.addr, align 8
  %_M_offset = getelementptr inbounds %"struct.std::_Bit_iterator_base", ptr %2, i32 0, i32 1
  %3 = load i32, ptr %_M_offset, align 8
  call void @_ZNSt18_Bit_iterator_baseC2EPmj(ptr noundef nonnull align 8 dereferenceable(12) %this1, ptr noundef %1, i32 noundef %3)
  ret void
}

; Function Attrs: noreturn nounwind uwtable
define linkonce_odr hidden void @__clang_call_terminate(ptr noundef %0) #4 comdat {
  %2 = call ptr @__cxa_begin_catch(ptr %0) #11
  call void @_ZSt9terminatev() #12
  unreachable
}

; Function Attrs: mustprogress uwtable
define linkonce_odr void @_ZNSt19_Bit_const_iteratorC2EPmj(ptr noundef nonnull align 8 dereferenceable(12) %this, ptr noundef %__x, i32 noundef %__y) unnamed_addr #0 comdat align 2 {
entry:
  %this.addr = alloca ptr, align 8
  %__x.addr = alloca ptr, align 8
  %__y.addr = alloca i32, align 4
  store ptr %this, ptr %this.addr, align 8
  store ptr %__x, ptr %__x.addr, align 8
  store i32 %__y, ptr %__y.addr, align 4
  %this1 = load ptr, ptr %this.addr, align 8
  %0 = load ptr, ptr %__x.addr, align 8
  %1 = load i32, ptr %__y.addr, align 4
  call void @_ZNSt18_Bit_iterator_baseC2EPmj(ptr noundef nonnull align 8 dereferenceable(12) %this1, ptr noundef %0, i32 noundef %1)
  ret void
}

; Function Attrs: mustprogress uwtable
define linkonce_odr noundef nonnull align 8 dereferenceable(12) ptr @_ZNSt19_Bit_const_iteratorppEv(ptr noundef nonnull align 8 dereferenceable(12) %this) #0 comdat align 2 {
entry:
  %this.addr = alloca ptr, align 8
  store ptr %this, ptr %this.addr, align 8
  %this1 = load ptr, ptr %this.addr, align 8
  call void @_ZNSt18_Bit_iterator_base10_M_bump_upEv(ptr noundef nonnull align 8 dereferenceable(12) %this1)
  ret ptr %this1
}

; Function Attrs: mustprogress uwtable
define linkonce_odr void @_ZN5arrow12ArrayBuilder20UnsafeAppendToBitmapEb(ptr noundef nonnull align 8 dereferenceable(144) %this, i1 noundef zeroext %is_valid) #0 comdat align 2 {
entry:
  %this.addr = alloca ptr, align 8
  %is_valid.addr = alloca i8, align 1
  store ptr %this, ptr %this.addr, align 8
  %frombool = zext i1 %is_valid to i8
  store i8 %frombool, ptr %is_valid.addr, align 1
  %this1 = load ptr, ptr %this.addr, align 8
  %null_bitmap_builder_ = getelementptr inbounds %"class.arrow::ArrayBuilder", ptr %this1, i32 0, i32 3
  %0 = load i8, ptr %is_valid.addr, align 1
  %tobool = trunc i8 %0 to i1
  call void @_ZN5arrow18TypedBufferBuilderIbvE12UnsafeAppendEb(ptr noundef nonnull align 8 dereferenceable(72) %null_bitmap_builder_, i1 noundef zeroext %tobool)
  %length_ = getelementptr inbounds %"class.arrow::ArrayBuilder", ptr %this1, i32 0, i32 5
  %1 = load i64, ptr %length_, align 8
  %inc = add nsw i64 %1, 1
  store i64 %inc, ptr %length_, align 8
  %2 = load i8, ptr %is_valid.addr, align 1
  %tobool2 = trunc i8 %2 to i1
  br i1 %tobool2, label %if.end, label %if.then

if.then:                                          ; preds = %entry
  %null_count_ = getelementptr inbounds %"class.arrow::ArrayBuilder", ptr %this1, i32 0, i32 4
  %3 = load i64, ptr %null_count_, align 8
  %inc3 = add nsw i64 %3, 1
  store i64 %inc3, ptr %null_count_, align 8
  br label %if.end

if.end:                                           ; preds = %if.then, %entry
  ret void
}

; Function Attrs: mustprogress uwtable
define linkonce_odr noundef zeroext i1 @_ZNKSt19_Bit_const_iteratordeEv(ptr noundef nonnull align 8 dereferenceable(12) %this) #0 comdat align 2 {
entry:
  %this.addr = alloca ptr, align 8
  %ref.tmp = alloca %"struct.std::_Bit_reference", align 8
  store ptr %this, ptr %this.addr, align 8
  %this1 = load ptr, ptr %this.addr, align 8
  %_M_p = getelementptr inbounds %"struct.std::_Bit_iterator_base", ptr %this1, i32 0, i32 0
  %0 = load ptr, ptr %_M_p, align 8
  %_M_offset = getelementptr inbounds %"struct.std::_Bit_iterator_base", ptr %this1, i32 0, i32 1
  %1 = load i32, ptr %_M_offset, align 8
  %sh_prom = zext i32 %1 to i64
  %shl = shl i64 1, %sh_prom
  call void @_ZNSt14_Bit_referenceC2EPmm(ptr noundef nonnull align 8 dereferenceable(16) %ref.tmp, ptr noundef %0, i64 noundef %shl)
  %call = call noundef zeroext i1 @_ZNKSt14_Bit_referencecvbEv(ptr noundef nonnull align 8 dereferenceable(16) %ref.tmp) #11
  ret i1 %call
}

; Function Attrs: mustprogress uwtable
define linkonce_odr noundef zeroext i1 @_ZStneRKSt18_Bit_iterator_baseS1_(ptr noundef nonnull align 8 dereferenceable(12) %__x, ptr noundef nonnull align 8 dereferenceable(12) %__y) #0 comdat {
entry:
  %__x.addr = alloca ptr, align 8
  %__y.addr = alloca ptr, align 8
  store ptr %__x, ptr %__x.addr, align 8
  store ptr %__y, ptr %__y.addr, align 8
  %0 = load ptr, ptr %__x.addr, align 8
  %1 = load ptr, ptr %__y.addr, align 8
  %call = call noundef zeroext i1 @_ZSteqRKSt18_Bit_iterator_baseS1_(ptr noundef nonnull align 8 dereferenceable(12) %0, ptr noundef nonnull align 8 dereferenceable(12) %1)
  %lnot = xor i1 %call, true
  ret i1 %lnot
}

; Function Attrs: mustprogress nounwind uwtable
define linkonce_odr { ptr, i32 } @_ZNKSt6vectorIbSaIbEE3endEv(ptr noundef nonnull align 8 dereferenceable(40) %this) #1 comdat align 2 personality ptr @__gxx_personality_v0 {
entry:
  %retval = alloca %"struct.std::_Bit_const_iterator", align 8
  %this.addr = alloca ptr, align 8
  store ptr %this, ptr %this.addr, align 8
  %this1 = load ptr, ptr %this.addr, align 8
  %_M_impl = getelementptr inbounds %"struct.std::_Bvector_base", ptr %this1, i32 0, i32 0
  %_M_finish = getelementptr inbounds %"struct.std::_Bvector_base<std::allocator<bool>>::_Bvector_impl_data", ptr %_M_impl, i32 0, i32 1
  invoke void @_ZNSt19_Bit_const_iteratorC2ERKSt13_Bit_iterator(ptr noundef nonnull align 8 dereferenceable(12) %retval, ptr noundef nonnull align 8 dereferenceable(12) %_M_finish)
          to label %invoke.cont unwind label %terminate.lpad

invoke.cont:                                      ; preds = %entry
  %0 = load { ptr, i32 }, ptr %retval, align 8
  ret { ptr, i32 } %0

terminate.lpad:                                   ; preds = %entry
  %1 = landingpad { ptr, i32 }
          catch ptr null
  %2 = extractvalue { ptr, i32 } %1, 0
  call void @__clang_call_terminate(ptr %2) #12
  unreachable
}

; Function Attrs: mustprogress nounwind uwtable
define linkonce_odr { ptr, i32 } @_ZNKSt6vectorIbSaIbEE5beginEv(ptr noundef nonnull align 8 dereferenceable(40) %this) #1 comdat align 2 personality ptr @__gxx_personality_v0 {
entry:
  %retval = alloca %"struct.std::_Bit_const_iterator", align 8
  %this.addr = alloca ptr, align 8
  store ptr %this, ptr %this.addr, align 8
  %this1 = load ptr, ptr %this.addr, align 8
  %_M_impl = getelementptr inbounds %"struct.std::_Bvector_base", ptr %this1, i32 0, i32 0
  %_M_start = getelementptr inbounds %"struct.std::_Bvector_base<std::allocator<bool>>::_Bvector_impl_data", ptr %_M_impl, i32 0, i32 0
  %_M_p = getelementptr inbounds %"struct.std::_Bit_iterator_base", ptr %_M_start, i32 0, i32 0
  %0 = load ptr, ptr %_M_p, align 8
  invoke void @_ZNSt19_Bit_const_iteratorC2EPmj(ptr noundef nonnull align 8 dereferenceable(12) %retval, ptr noundef %0, i32 noundef 0)
          to label %invoke.cont unwind label %terminate.lpad

invoke.cont:                                      ; preds = %entry
  %1 = load { ptr, i32 }, ptr %retval, align 8
  ret { ptr, i32 } %1

terminate.lpad:                                   ; preds = %entry
  %2 = landingpad { ptr, i32 }
          catch ptr null
  %3 = extractvalue { ptr, i32 } %2, 0
  call void @__clang_call_terminate(ptr %3) #12
  unreachable
}

; Function Attrs: mustprogress uwtable
define void @_ZN5arrow12ArrayBuilder20UnsafeAppendToBitmapERKSt6vectorIbSaIbEE(ptr noundef nonnull align 8 dereferenceable(144) %this, ptr noundef nonnull align 8 dereferenceable(40) %is_valid) #0 align 2 {
entry:
  %this.addr = alloca ptr, align 8
  %is_valid.addr = alloca ptr, align 8
  %__range1 = alloca ptr, align 8
  %__begin1 = alloca %"struct.std::_Bit_const_iterator", align 8
  %__end1 = alloca %"struct.std::_Bit_const_iterator", align 8
  %element_valid = alloca i8, align 1
  store ptr %this, ptr %this.addr, align 8
  store ptr %is_valid, ptr %is_valid.addr, align 8
  %this1 = load ptr, ptr %this.addr, align 8
  %0 = load ptr, ptr %is_valid.addr, align 8
  store ptr %0, ptr %__range1, align 8
  %1 = load ptr, ptr %__range1, align 8
  %call = call { ptr, i32 } @_ZNKSt6vectorIbSaIbEE5beginEv(ptr noundef nonnull align 8 dereferenceable(40) %1) #11
  %2 = getelementptr inbounds { ptr, i32 }, ptr %__begin1, i32 0, i32 0
  %3 = extractvalue { ptr, i32 } %call, 0
  store ptr %3, ptr %2, align 8
  %4 = getelementptr inbounds { ptr, i32 }, ptr %__begin1, i32 0, i32 1
  %5 = extractvalue { ptr, i32 } %call, 1
  store i32 %5, ptr %4, align 8
  %6 = load ptr, ptr %__range1, align 8
  %call2 = call { ptr, i32 } @_ZNKSt6vectorIbSaIbEE3endEv(ptr noundef nonnull align 8 dereferenceable(40) %6) #11
  %7 = getelementptr inbounds { ptr, i32 }, ptr %__end1, i32 0, i32 0
  %8 = extractvalue { ptr, i32 } %call2, 0
  store ptr %8, ptr %7, align 8
  %9 = getelementptr inbounds { ptr, i32 }, ptr %__end1, i32 0, i32 1
  %10 = extractvalue { ptr, i32 } %call2, 1
  store i32 %10, ptr %9, align 8
  br label %for.cond

for.cond:                                         ; preds = %for.inc, %entry
  %call3 = call noundef zeroext i1 @_ZStneRKSt18_Bit_iterator_baseS1_(ptr noundef nonnull align 8 dereferenceable(12) %__begin1, ptr noundef nonnull align 8 dereferenceable(12) %__end1)
  br i1 %call3, label %for.body, label %for.end

for.body:                                         ; preds = %for.cond
  %call4 = call noundef zeroext i1 @_ZNKSt19_Bit_const_iteratordeEv(ptr noundef nonnull align 8 dereferenceable(12) %__begin1)
  %frombool = zext i1 %call4 to i8
  store i8 %frombool, ptr %element_valid, align 1
  %11 = load i8, ptr %element_valid, align 1
  %tobool = trunc i8 %11 to i1
  call void @_ZN5arrow12ArrayBuilder20UnsafeAppendToBitmapEb(ptr noundef nonnull align 8 dereferenceable(144) %this1, i1 noundef zeroext %tobool)
  br label %for.inc

for.inc:                                          ; preds = %for.body
  %call5 = call noundef nonnull align 8 dereferenceable(12) ptr @_ZNSt19_Bit_const_iteratorppEv(ptr noundef nonnull align 8 dereferenceable(12) %__begin1)
  br label %for.cond

for.end:                                          ; preds = %for.cond
  ret void
}