; Function Attrs: mustprogress nofree norecurse nosync nounwind memory(readwrite, inaccessiblemem: none) uwtable
define void @_ZN5arrow12ArrayBuilder20UnsafeAppendToBitmapERKSt6vectorIbSaIbEE(ptr nocapture noundef nonnull align 8 dereferenceable(144) %this, ptr nocapture noundef nonnull readonly align 8 dereferenceable(40) %is_valid) local_unnamed_addr #4 align 2 personality ptr @__gxx_personality_v0 {
entry:
  %0 = load ptr, ptr %is_valid, align 8
  %_M_finish.i = getelementptr inbounds i8, ptr %is_valid, i64 16
  %1 = load ptr, ptr %_M_finish.i, align 8
  %_M_offset.i.i = getelementptr inbounds i8, ptr %is_valid, i64 24
  %2 = load i32, ptr %_M_offset.i.i, align 8
  %cmp.i.i13 = icmp ne ptr %0, %1
  %cmp3.i.i14 = icmp ne i32 %2, 0
  %.not.i15 = select i1 %cmp.i.i13, i1 true, i1 %cmp3.i.i14
  br i1 %.not.i15, label %for.body.lr.ph, label %for.end

for.body.lr.ph:                                   ; preds = %entry
  %data_.i.i.i.i = getelementptr inbounds i8, ptr %this, i64 48
  %bit_length_.i.i = getelementptr inbounds i8, ptr %this, i64 80
  %length_.i = getelementptr inbounds i8, ptr %this, i64 104
  br label %for.body

for.body:                                         ; preds = %for.body.lr.ph, %_ZN5arrow12ArrayBuilder20UnsafeAppendToBitmapEb.exit
  %__begin1.sroa.5.017 = phi i32 [ 0, %for.body.lr.ph ], [ %spec.select12, %_ZN5arrow12ArrayBuilder20UnsafeAppendToBitmapEb.exit ]
  %__begin1.sroa.0.016 = phi ptr [ %0, %for.body.lr.ph ], [ %spec.select, %_ZN5arrow12ArrayBuilder20UnsafeAppendToBitmapEb.exit ]
  %sh_prom.i = zext nneg i32 %__begin1.sroa.5.017 to i64
  %shl.i = shl nuw i64 1, %sh_prom.i
  %3 = load i64, ptr %__begin1.sroa.0.016, align 8
  %and.i.i = and i64 %3, %shl.i
  %tobool.i.i = icmp ne i64 %and.i.i, 0
  %4 = load ptr, ptr %data_.i.i.i.i, align 8
  %5 = load i64, ptr %bit_length_.i.i, align 8
  %conv1.neg.i.i.i = sext i1 %tobool.i.i to i8
  %div.i.i.i = sdiv i64 %5, 8
  %arrayidx.i.i.i = getelementptr inbounds i8, ptr %4, i64 %div.i.i.i
  %6 = load i8, ptr %arrayidx.i.i.i, align 1
  %xor.i.i.i = xor i8 %6, %conv1.neg.i.i.i
  %rem.i.i.i = srem i64 %5, 8
  %arrayidx5.i.i.i = getelementptr inbounds [8 x i8], ptr @_ZN5arrow8bit_utilL8kBitmaskE, i64 0, i64 %rem.i.i.i
  %7 = load i8, ptr %arrayidx5.i.i.i, align 1
  %and4.i.i.i = and i8 %xor.i.i.i, %7
  %xor105.i.i.i = xor i8 %and4.i.i.i, %6
  store i8 %xor105.i.i.i, ptr %arrayidx.i.i.i, align 1
  br i1 %tobool.i.i, label %_ZN5arrow12ArrayBuilder20UnsafeAppendToBitmapEb.exit, label %if.then.i

if.then.i:                                        ; preds = %for.body
  %8 = load <2 x i64>, ptr %bit_length_.i.i, align 8
  %9 = add nsw <2 x i64> %8, <i64 1, i64 1>
  store <2 x i64> %9, ptr %bit_length_.i.i, align 8
  br label %_ZN5arrow12ArrayBuilder20UnsafeAppendToBitmapEb.exit

_ZN5arrow12ArrayBuilder20UnsafeAppendToBitmapEb.exit: ; preds = %for.body, %if.then.i
  %bit_length_.i.sink7.i = phi ptr [ %length_.i, %if.then.i ], [ %bit_length_.i.i, %for.body ]
  %.sink.i = phi i64 [ 96, %if.then.i ], [ 104, %for.body ]
  %10 = load i64, ptr %bit_length_.i.sink7.i, align 8
  %inc4.i2.i = add nsw i64 %10, 1
  store i64 %inc4.i2.i, ptr %bit_length_.i.sink7.i, align 8
  %length_3.i = getelementptr inbounds i8, ptr %this, i64 %.sink.i
  %11 = load i64, ptr %length_3.i, align 8
  %inc4.i = add nsw i64 %11, 1
  store i64 %inc4.i, ptr %length_3.i, align 8
  %inc.i.i6 = add i32 %__begin1.sroa.5.017, 1
  %cmp.i.i7 = icmp eq i32 %__begin1.sroa.5.017, 63
  %spec.select.idx = select i1 %cmp.i.i7, i64 8, i64 0
  %spec.select = getelementptr inbounds i8, ptr %__begin1.sroa.0.016, i64 %spec.select.idx
  %spec.select12 = select i1 %cmp.i.i7, i32 0, i32 %inc.i.i6
  %cmp.i.i = icmp ne ptr %spec.select, %1
  %cmp3.i.i = icmp ne i32 %spec.select12, %2
  %.not.i = select i1 %cmp.i.i, i1 true, i1 %cmp3.i.i
  br i1 %.not.i, label %for.body, label %for.end

for.end:                                          ; preds = %_ZN5arrow12ArrayBuilder20UnsafeAppendToBitmapEb.exit, %entry
  ret void
}